target datalayout = "e-m:e-p270:32:32-p271:32:32-p272:64:64-i64:64-i128:128-f80:128-n8:16:32:64-S128"
target triple = "x86_64-pc-linux-gnu"

%struct._object = type { i64, ptr }
%struct.PyModuleDef = type { %struct.PyModuleDef_Base, ptr, ptr, i64, ptr, ptr, ptr, ptr, ptr }
%struct.PyModuleDef_Base = type { %struct._object, ptr, i64, ptr }

@_ZL9moduledef = internal global %struct.PyModuleDef { %struct.PyModuleDef_Base { %struct._object { i64 1, ptr null }, ptr null, i64 0, ptr null }, ptr @.str.89, ptr @.str.5, i64 -1, ptr @_ZL14module_methods, ptr null, ptr null, ptr null, ptr null }, align 8
@.str.3 = private unnamed_addr constant [6 x i8] c"Annoy\00", align 1

; Function Attrs: inlinehint mustprogress nounwind sspstrong uwtable
define internal void @_ZL10_Py_INCREFP7_object(ptr noundef %0) #6 {
  %2 = alloca ptr, align 8
  store ptr %0, ptr %2, align 8, !tbaa !14
  %3 = load ptr, ptr %2, align 8, !tbaa !14
  %4 = getelementptr inbounds nuw %struct._object, ptr %3, i32 0, i32 0
  %5 = load i64, ptr %4, align 8, !tbaa !45
  %6 = add i64 %5, 1
  store i64 %6, ptr %4, align 8, !tbaa !45
  ret void
}

; Function Attrs: mustprogress sspstrong uwtable
define noundef ptr @_Z13create_modulev() #2 {
  %1 = alloca ptr, align 8
  %2 = alloca ptr, align 8
  %3 = alloca i32, align 4
  call void @llvm.lifetime.start.p0(i64 8, ptr %2) #28
  %4 = call i32 @PyType_Ready(ptr noundef @_ZL11PyAnnoyType)
  %5 = icmp slt i32 %4, 0
  br i1 %5, label %6, label %7

6:                                                ; preds = %0
  store ptr null, ptr %1, align 8
  store i32 1, ptr %3, align 4
  br label %16

7:                                                ; preds = %0
  %8 = call ptr @PyModule_Create2(ptr noundef @_ZL9moduledef, i32 noundef 1013)
  store ptr %8, ptr %2, align 8, !tbaa !14
  %9 = load ptr, ptr %2, align 8, !tbaa !14
  %10 = icmp eq ptr %9, null
  br i1 %10, label %11, label %12

11:                                               ; preds = %7
  store ptr null, ptr %1, align 8
  store i32 1, ptr %3, align 4
  br label %16

12:                                               ; preds = %7
  call void @_ZL10_Py_INCREFP7_object(ptr noundef @_ZL11PyAnnoyType)
  %13 = load ptr, ptr %2, align 8, !tbaa !14
  %14 = call i32 @PyModule_AddObject(ptr noundef %13, ptr noundef @.str.3, ptr noundef @_ZL11PyAnnoyType)
  %15 = load ptr, ptr %2, align 8, !tbaa !14
  store ptr %15, ptr %1, align 8
  store i32 1, ptr %3, align 4
  br label %16

16:                                               ; preds = %12, %11, %6
  call void @llvm.lifetime.end.p0(i64 8, ptr %2) #28
  %17 = load ptr, ptr %1, align 8
  ret ptr %17
}