; Function Attrs: mustprogress sspstrong uwtable
define noundef ptr @_Z13create_modulev() local_unnamed_addr #2 {
  %1 = tail call i32 @PyType_Ready(ptr noundef nonnull @_ZL11PyAnnoyType)
  %2 = icmp slt i32 %1, 0
  br i1 %2, label %10, label %3

3:                                                ; preds = %0
  %4 = tail call ptr @PyModule_Create2(ptr noundef nonnull @_ZL9moduledef, i32 noundef 1013)
  %5 = icmp eq ptr %4, null
  br i1 %5, label %10, label %6

6:                                                ; preds = %3
  %7 = load i64, ptr @_ZL11PyAnnoyType, align 8, !tbaa !21
  %8 = add i64 %7, 1
  store i64 %8, ptr @_ZL11PyAnnoyType, align 8, !tbaa !21
  %9 = tail call i32 @PyModule_AddObject(ptr noundef nonnull %4, ptr noundef nonnull @.str.3, ptr noundef nonnull @_ZL11PyAnnoyType)
  br label %10

10:                                               ; preds = %3, %0, %6
  %.0 = phi ptr [ %4, %6 ], [ null, %0 ], [ null, %3 ]
  ret ptr %.0
}